; ModuleID = '3/1572.c'
source_filename = "3/1572.c"
target datalayout = "e-m:e-p270:32:32-p271:32:32-p272:64:64-i64:64-f80:128-n8:16:32:64-S128"
target triple = "x86_64-pc-linux-gnu"

@.str = private unnamed_addr constant [3 x i8] c"%d\00", align 1
@.str.1 = private unnamed_addr constant [3 x i8] c"no\00", align 1
@.str.2 = private unnamed_addr constant [4 x i8] c"yes\00", align 1

; Function Attrs: noinline nounwind uwtable
define dso_local i32 @main() #0 {
  %1 = alloca i32, align 4
  %2 = alloca i32, align 4
  %3 = alloca i32, align 4
  %4 = alloca i32, align 4
  %5 = alloca [1000 x i32], align 16
  %6 = alloca i32, align 4
  %7 = alloca i32, align 4
  %8 = alloca i32, align 4
  store i32 0, i32* %1, align 4
  store i32 0, i32* %4, align 4
  %9 = call i32 (i8*, ...) @__isoc99_scanf(i8* getelementptr inbounds ([3 x i8], [3 x i8]* @.str, i64 0, i64 0), i32* %2)
  %10 = call i32 (i8*, ...) @__isoc99_scanf(i8* getelementptr inbounds ([3 x i8], [3 x i8]* @.str, i64 0, i64 0), i32* %3)
  store i32 0, i32* %6, align 4
  br label %11

11:                                               ; preds = %20, %0
  %12 = load i32, i32* %6, align 4
  %13 = load i32, i32* %2, align 4
  %14 = icmp slt i32 %12, %13
  br i1 %14, label %15, label %23

15:                                               ; preds = %11
  %16 = load i32, i32* %6, align 4
  %17 = sext i32 %16 to i64
  %18 = getelementptr inbounds [1000 x i32], [1000 x i32]* %5, i64 0, i64 %17
  %19 = call i32 (i8*, ...) @__isoc99_scanf(i8* getelementptr inbounds ([3 x i8], [3 x i8]* @.str, i64 0, i64 0), i32* %18)
  br label %20

20:                                               ; preds = %15
  %21 = load i32, i32* %6, align 4
  %22 = add nsw i32 %21, 1
  store i32 %22, i32* %6, align 4
  br label %11

23:                                               ; preds = %11
  store i32 0, i32* %7, align 4
  br label %24

24:                                               ; preds = %70, %23
  %25 = load i32, i32* %7, align 4
  %26 = load i32, i32* %2, align 4
  %27 = icmp slt i32 %25, %26
  br i1 %27, label %28, label %73

28:                                               ; preds = %24
  %29 = load i32, i32* %7, align 4
  %30 = add nsw i32 %29, 1
  store i32 %30, i32* %8, align 4
  br label %31

31:                                               ; preds = %66, %28
  %32 = load i32, i32* %8, align 4
  %33 = load i32, i32* %2, align 4
  %34 = icmp slt i32 %32, %33
  br i1 %34, label %35, label %69

35:                                               ; preds = %31
  %36 = load i32, i32* %3, align 4
  %37 = load i32, i32* %7, align 4
  %38 = sext i32 %37 to i64
  %39 = getelementptr inbounds [1000 x i32], [1000 x i32]* %5, i64 0, i64 %38
  %40 = load i32, i32* %39, align 4
  %41 = load i32, i32* %8, align 4
  %42 = sext i32 %41 to i64
  %43 = getelementptr inbounds [1000 x i32], [1000 x i32]* %5, i64 0, i64 %42
  %44 = load i32, i32* %43, align 4
  %45 = add nsw i32 %40, %44
  %46 = icmp eq i32 %36, %45
  br i1 %46, label %47, label %50

47:                                               ; preds = %35
  %48 = load i32, i32* %4, align 4
  %49 = add nsw i32 %48, 1
  store i32 %49, i32* %4, align 4
  br label %50

50:                                               ; preds = %47, %35
  %51 = load i32, i32* %3, align 4
  %52 = load i32, i32* %7, align 4
  %53 = sext i32 %52 to i64
  %54 = getelementptr inbounds [1000 x i32], [1000 x i32]* %5, i64 0, i64 %53
  %55 = load i32, i32* %54, align 4
  %56 = load i32, i32* %8, align 4
  %57 = sext i32 %56 to i64
  %58 = getelementptr inbounds [1000 x i32], [1000 x i32]* %5, i64 0, i64 %57
  %59 = load i32, i32* %58, align 4
  %60 = add nsw i32 %55, %59
  %61 = icmp ne i32 %51, %60
  br i1 %61, label %62, label %65

62:                                               ; preds = %50
  %63 = load i32, i32* %4, align 4
  %64 = add nsw i32 %63, 0
  store i32 %64, i32* %4, align 4
  br label %65

65:                                               ; preds = %62, %50
  br label %66

66:                                               ; preds = %65
  %67 = load i32, i32* %8, align 4
  %68 = add nsw i32 %67, 1
  store i32 %68, i32* %8, align 4
  br label %31

69:                                               ; preds = %31
  br label %70

70:                                               ; preds = %69
  %71 = load i32, i32* %7, align 4
  %72 = add nsw i32 %71, 1
  store i32 %72, i32* %7, align 4
  br label %24

73:                                               ; preds = %24
  %74 = load i32, i32* %4, align 4
  %75 = icmp eq i32 %74, 0
  br i1 %75, label %76, label %78

76:                                               ; preds = %73
  %77 = call i32 (i8*, ...) @printf(i8* getelementptr inbounds ([3 x i8], [3 x i8]* @.str.1, i64 0, i64 0))
  br label %78

78:                                               ; preds = %76, %73
  %79 = load i32, i32* %4, align 4
  %80 = icmp ne i32 %79, 0
  br i1 %80, label %81, label %83

81:                                               ; preds = %78
  %82 = call i32 (i8*, ...) @printf(i8* getelementptr inbounds ([4 x i8], [4 x i8]* @.str.2, i64 0, i64 0))
  br label %83

83:                                               ; preds = %81, %78
  ret i32 0
}

declare dso_local i32 @__isoc99_scanf(i8*, ...) #1

declare dso_local i32 @printf(i8*, ...) #1


!llvm.module.flags = !{!0}
!llvm.ident = !{!1}

!0 = !{i32 1, !"wchar_size", i32 4}
!1 = !{!"clang version 10.0.0-4ubuntu1 "}
